target datalayout = "e-m:e-p270:32:32-p271:32:32-p272:64:64-i64:64-i128:128-f80:128-n8:16:32:64-S128"
target triple = "x86_64-pc-linux-gnu"

%"class.clang::CodeGen::AggValueSlot" = type <{ %"class.clang::CodeGen::Address", %"class.clang::Qualifiers", i8, [7 x i8] }>
%"class.clang::CodeGen::Address" = type { %"class.llvm::PointerIntPair", ptr, %"class.clang::CharUnits", %"class.clang::CodeGen::CGPointerAuthInfo", ptr }
%"class.llvm::PointerIntPair" = type { %"struct.llvm::detail::PunnedPointer" }
%"struct.llvm::detail::PunnedPointer" = type { [8 x i8] }
%"class.clang::CharUnits" = type { i64 }
%"class.clang::CodeGen::CGPointerAuthInfo" = type { i8, ptr }
%"class.clang::Qualifiers" = type { i64 }
%"class.(anonymous namespace)::AggExprEmitter" = type <{ ptr, ptr, %"class.clang::CodeGen::AggValueSlot", i8, [7 x i8] }>
%"class.clang::QualType" = type { %"class.llvm::PointerIntPair.39" }
%"class.llvm::PointerIntPair.39" = type { %"struct.llvm::detail::PunnedPointer.40" }
%"struct.llvm::detail::PunnedPointer.40" = type { [8 x i8] }
%"class.clang::CodeGen::ApplyDebugLocation" = type { %"class.llvm::DebugLoc", ptr }
%"class.llvm::DebugLoc" = type { %"class.llvm::TypedTrackingMDRef" }
%"class.llvm::TypedTrackingMDRef" = type { %"class.llvm::TrackingMDRef" }
%"class.llvm::TrackingMDRef" = type { ptr }
%"class.clang::CodeGen::LValue" = type { i32, %union.anon.191, %union.anon.192, %"class.clang::QualType", %"class.clang::Qualifiers", i8, %"class.clang::CodeGen::LValueBaseInfo", %"struct.clang::CodeGen::TBAAAccessInfo", ptr }
%union.anon.191 = type { %"class.clang::CodeGen::Address" }
%union.anon.192 = type { ptr }
%"class.clang::CodeGen::LValueBaseInfo" = type { i32 }
%"struct.clang::CodeGen::TBAAAccessInfo" = type { i32, ptr, ptr, i64, i64 }
%"class.clang::Expr" = type { %"class.clang::ValueStmt", %"class.clang::QualType" }
%"class.clang::ValueStmt" = type { %"class.clang::Stmt" }
%"class.clang::Stmt" = type { %union.anon.193 }
%union.anon.193 = type { %"class.clang::Stmt::PseudoObjectExprBitfields" }
%"class.clang::Stmt::PseudoObjectExprBitfields" = type { i64 }
%"class.clang::OpaqueValueExpr" = type { %"class.clang::Expr", ptr }

; Function Attrs: mustprogress nounwind uwtable
define linkonce_odr hidden i64 @_ZNK5clang4Expr7getTypeEv(ptr noundef nonnull align 8 dereferenceable(16) %0) #0 comdat align 2 {
  %2 = alloca %"class.clang::QualType", align 8
  %3 = alloca ptr, align 8
  store ptr %0, ptr %3, align 8
  %4 = load ptr, ptr %3, align 8
  %5 = getelementptr inbounds nuw %"class.clang::Expr", ptr %4, i32 0, i32 1
  call void @llvm.memcpy.p0.p0.i64(ptr align 8 %2, ptr align 8 %5, i64 8, i1 false)
  %6 = getelementptr inbounds nuw %"class.clang::QualType", ptr %2, i32 0, i32 0
  %7 = getelementptr inbounds nuw %"class.llvm::PointerIntPair.39", ptr %6, i32 0, i32 0
  %8 = getelementptr inbounds nuw %"struct.llvm::detail::PunnedPointer.40", ptr %7, i32 0, i32 0
  %9 = load i64, ptr %8, align 8
  ret i64 %9
}

; Function Attrs: mustprogress nounwind uwtable
define internal void @_ZN12_GLOBAL__N_114AggExprEmitter5VisitEPN5clang4ExprE(ptr noundef nonnull align 8 dereferenceable(81) %0, ptr noundef %1) #0 align 2 {
  %3 = alloca ptr, align 8
  %4 = alloca ptr, align 8
  %5 = alloca %"class.clang::CodeGen::ApplyDebugLocation", align 8
  store ptr %0, ptr %3, align 8
  store ptr %1, ptr %4, align 8
  %6 = load ptr, ptr %3, align 8
  %7 = getelementptr inbounds nuw %"class.(anonymous namespace)::AggExprEmitter", ptr %6, i32 0, i32 0
  %8 = load ptr, ptr %7, align 8
  %9 = load ptr, ptr %4, align 8
  call void @_ZN5clang7CodeGen18ApplyDebugLocationC1ERNS0_15CodeGenFunctionEPKNS_4ExprE(ptr noundef nonnull align 8 dereferenceable(16) %5, ptr noundef nonnull align 8 dereferenceable(6488) %8, ptr noundef %9)
  %10 = load ptr, ptr %4, align 8
  call void @_ZN5clang15StmtVisitorBaseISt11add_pointerN12_GLOBAL__N_114AggExprEmitterEvJEE5VisitEPNS_4StmtE(ptr noundef nonnull align 1 dereferenceable(1) %6, ptr noundef %10)
  call void @_ZN5clang7CodeGen18ApplyDebugLocationD1Ev(ptr noundef nonnull align 8 dereferenceable(16) %5) #10
  ret void
}

; Function Attrs: mustprogress nounwind uwtable
define linkonce_odr hidden noundef ptr @_ZNK5clang15OpaqueValueExpr13getSourceExprEv(ptr noundef nonnull align 8 dereferenceable(24) %0) #0 comdat align 2 {
  %2 = alloca ptr, align 8
  store ptr %0, ptr %2, align 8
  %3 = load ptr, ptr %2, align 8
  %4 = getelementptr inbounds nuw %"class.clang::OpaqueValueExpr", ptr %3, i32 0, i32 1
  %5 = load ptr, ptr %4, align 8
  ret ptr %5
}

; Function Attrs: mustprogress nounwind uwtable
define linkonce_odr hidden noundef zeroext i1 @_ZNK5clang15OpaqueValueExpr8isUniqueEv(ptr noundef nonnull align 8 dereferenceable(24) %0) #0 comdat align 2 {
  %2 = alloca ptr, align 8
  store ptr %0, ptr %2, align 8
  %3 = load ptr, ptr %2, align 8
  %4 = getelementptr inbounds nuw %"class.clang::Stmt", ptr %3, i32 0, i32 0
  %5 = load i32, ptr %4, align 8
  %6 = lshr i32 %5, 18
  %7 = and i32 %6, 1
  %8 = icmp ne i32 %7, 0
  ret i1 %8
}

; Function Attrs: mustprogress nounwind uwtable
define internal void @_ZN12_GLOBAL__N_114AggExprEmitter20VisitOpaqueValueExprEPN5clang15OpaqueValueExprE(ptr noundef nonnull align 8 dereferenceable(81) %0, ptr noundef %1) #0 align 2 {
  %3 = alloca ptr, align 8
  %4 = alloca ptr, align 8
  %5 = alloca %"class.clang::QualType", align 8
  %6 = alloca %"class.clang::CodeGen::LValue", align 8
  store ptr %0, ptr %3, align 8
  store ptr %1, ptr %4, align 8
  %7 = load ptr, ptr %3, align 8
  %8 = load ptr, ptr %4, align 8
  %9 = call noundef zeroext i1 @_ZNK5clang15OpaqueValueExpr8isUniqueEv(ptr noundef nonnull align 8 dereferenceable(24) %8)
  br i1 %9, label %10, label %13

10:                                               ; preds = %2
  %11 = load ptr, ptr %4, align 8
  %12 = call noundef ptr @_ZNK5clang15OpaqueValueExpr13getSourceExprEv(ptr noundef nonnull align 8 dereferenceable(24) %11)
  call void @_ZN12_GLOBAL__N_114AggExprEmitter5VisitEPN5clang4ExprE(ptr noundef nonnull align 8 dereferenceable(81) %7, ptr noundef %12)
  br label %26

13:                                               ; preds = %2
  %14 = load ptr, ptr %4, align 8
  %15 = call i64 @_ZNK5clang4Expr7getTypeEv(ptr noundef nonnull align 8 dereferenceable(16) %14)
  %16 = getelementptr inbounds nuw %"class.clang::QualType", ptr %5, i32 0, i32 0
  %17 = getelementptr inbounds nuw %"class.llvm::PointerIntPair.39", ptr %16, i32 0, i32 0
  %18 = getelementptr inbounds nuw %"struct.llvm::detail::PunnedPointer.40", ptr %17, i32 0, i32 0
  store i64 %15, ptr %18, align 8
  %19 = getelementptr inbounds nuw %"class.(anonymous namespace)::AggExprEmitter", ptr %7, i32 0, i32 0
  %20 = load ptr, ptr %19, align 8
  %21 = load ptr, ptr %4, align 8
  call void @_ZN5clang7CodeGen15CodeGenFunction30getOrCreateOpaqueLValueMappingEPKNS_15OpaqueValueExprE(ptr dead_on_unwind writable sret(%"class.clang::CodeGen::LValue") align 8 %6, ptr noundef nonnull align 8 dereferenceable(6488) %20, ptr noundef %21)
  %22 = getelementptr inbounds nuw %"class.clang::QualType", ptr %5, i32 0, i32 0
  %23 = getelementptr inbounds nuw %"class.llvm::PointerIntPair.39", ptr %22, i32 0, i32 0
  %24 = getelementptr inbounds nuw %"struct.llvm::detail::PunnedPointer.40", ptr %23, i32 0, i32 0
  %25 = load i64, ptr %24, align 8
  call void @_ZN12_GLOBAL__N_114AggExprEmitter17EmitFinalDestCopyEN5clang8QualTypeERKNS1_7CodeGen6LValueENS3_15CodeGenFunction13ExprValueKindE(ptr noundef nonnull align 8 dereferenceable(81) %7, i64 %25, ptr noundef nonnull align 8 dereferenceable(136) %6, i32 noundef 1)
  br label %26

26:                                               ; preds = %13, %10
  ret void
}