; Function Attrs: mustprogress nounwind uwtable
define internal fastcc void @_ZN12_GLOBAL__N_114AggExprEmitter20VisitOpaqueValueExprEPN5clang15OpaqueValueExprE(ptr noundef nonnull align 8 dereferenceable(81) %0, ptr noundef %1) unnamed_addr #0 align 2 {
  %3 = alloca %"class.clang::CodeGen::ApplyDebugLocation", align 8
  %4 = alloca %"class.clang::CodeGen::LValue", align 8
  %5 = load i32, ptr %1, align 8
  %6 = and i32 %5, 262144
  %.not = icmp eq i32 %6, 0
  br i1 %.not, label %11, label %7

7:                                                ; preds = %2
  %8 = getelementptr inbounds nuw i8, ptr %1, i64 16
  %9 = load ptr, ptr %8, align 8
  call void @llvm.lifetime.start.p0(i64 16, ptr nonnull %3)
  %10 = load ptr, ptr %0, align 8
  call void @_ZN5clang7CodeGen18ApplyDebugLocationC1ERNS0_15CodeGenFunctionEPKNS_4ExprE(ptr noundef nonnull align 8 dereferenceable(16) %3, ptr noundef nonnull align 8 dereferenceable(6488) %10, ptr noundef %9) #15
  call fastcc void @_ZN5clang15StmtVisitorBaseISt11add_pointerN12_GLOBAL__N_114AggExprEmitterEvJEE5VisitEPNS_4StmtE(ptr noundef nonnull align 1 dereferenceable(1) %0, ptr noundef %9)
  call void @_ZN5clang7CodeGen18ApplyDebugLocationD1Ev(ptr noundef nonnull align 8 dereferenceable(16) %3) #15
  call void @llvm.lifetime.end.p0(i64 16, ptr nonnull %3)
  br label %14

11:                                               ; preds = %2
  %12 = getelementptr inbounds nuw i8, ptr %1, i64 8
  %.sroa.0.0.copyload.i = load i64, ptr %12, align 8
  %13 = load ptr, ptr %0, align 8
  call void @_ZN5clang7CodeGen15CodeGenFunction30getOrCreateOpaqueLValueMappingEPKNS_15OpaqueValueExprE(ptr dead_on_unwind nonnull writable sret(%"class.clang::CodeGen::LValue") align 8 %4, ptr noundef nonnull align 8 dereferenceable(6488) %13, ptr noundef nonnull %1) #15
  call fastcc void @_ZN12_GLOBAL__N_114AggExprEmitter17EmitFinalDestCopyEN5clang8QualTypeERKNS1_7CodeGen6LValueENS3_15CodeGenFunction13ExprValueKindE(ptr noundef nonnull align 8 dereferenceable(81) %0, i64 %.sroa.0.0.copyload.i, ptr noundef nonnull align 8 dereferenceable(136) %4, i32 noundef 1)
  br label %14

14:                                               ; preds = %11, %7
  ret void
}